target datalayout = "e-m:e-p270:32:32-p271:32:32-p272:64:64-i64:64-i128:128-f80:128-n8:16:32:64-S128"
target triple = "x86_64-unknown-linux-gnu"

%"class.std::basic_istream" = type { ptr, i64, %"class.std::basic_ios" }
%"class.std::basic_ios" = type { %"class.std::ios_base", ptr, i8, i8, ptr, ptr, ptr, ptr }
%"class.std::ios_base" = type { ptr, i64, i64, i32, i32, i32, ptr, %"struct.std::ios_base::_Words", [8 x %"struct.std::ios_base::_Words"], i32, ptr, %"class.std::locale" }
%"struct.std::ios_base::_Words" = type { ptr, i64 }
%"class.std::locale" = type { ptr }
%"class.std::basic_ostream" = type { ptr, %"class.std::basic_ios" }
%class.veloxtpFlexLexer = type <{ %class.FlexLexer.base, i32, i32, [4 x i8], ptr, %"class.std::basic_istream", %"class.std::basic_ostream", i8, [3 x i8], i32, ptr, i32, i32, i32, [4 x i8], i64, i64, ptr, i32, [4 x i8], ptr, ptr, ptr, ptr, ptr, i32, i32, i32, i32, i32, i32, i32, [4 x i8] }>
%class.FlexLexer.base = type <{ ptr, ptr, i32, i32, i32 }>

@.str.8 = private unnamed_addr constant [49 x i8] c"out of dynamic memory in yyensure_buffer_stack()\00", align 1

; Function Attrs: mustprogress nounwind uwtable
define noundef ptr @_Z14veloxtpreallocPvm(ptr noundef %ptr, i64 noundef %size) #4 {
entry:
  %ptr.addr = alloca ptr, align 8
  %size.addr = alloca i64, align 8
  store ptr %ptr, ptr %ptr.addr, align 8
  store i64 %size, ptr %size.addr, align 8
  %0 = load ptr, ptr %ptr.addr, align 8
  %1 = load i64, ptr %size.addr, align 8
  %call = call ptr @realloc(ptr noundef %0, i64 noundef %1) #22
  ret ptr %call
}

; Function Attrs: mustprogress nounwind uwtable
define noundef ptr @_Z12veloxtpallocm(i64 noundef %size) #4 {
entry:
  %size.addr = alloca i64, align 8
  store i64 %size, ptr %size.addr, align 8
  %0 = load i64, ptr %size.addr, align 8
  %call = call noalias ptr @malloc(i64 noundef %0) #24
  ret ptr %call
}

; Function Attrs: mustprogress uwtable
define void @_ZN16veloxtpFlexLexer21yyensure_buffer_stackEv(ptr noundef nonnull align 8 dereferenceable(732) %this) #5 align 2 {
entry:
  %this.addr = alloca ptr, align 8
  %num_to_alloc = alloca i64, align 8
  %grow_size = alloca i64, align 8
  store ptr %this, ptr %this.addr, align 8
  %this1 = load ptr, ptr %this.addr, align 8
  %yy_buffer_stack = getelementptr inbounds %class.veloxtpFlexLexer, ptr %this1, i32 0, i32 17
  %0 = load ptr, ptr %yy_buffer_stack, align 8
  %tobool = icmp ne ptr %0, null
  br i1 %tobool, label %if.end8, label %if.then

if.then:                                          ; preds = %entry
  store i64 1, ptr %num_to_alloc, align 8
  %1 = load i64, ptr %num_to_alloc, align 8
  %mul = mul i64 %1, 8
  %call = call noundef ptr @_Z12veloxtpallocm(i64 noundef %mul)
  %yy_buffer_stack2 = getelementptr inbounds %class.veloxtpFlexLexer, ptr %this1, i32 0, i32 17
  store ptr %call, ptr %yy_buffer_stack2, align 8
  %yy_buffer_stack3 = getelementptr inbounds %class.veloxtpFlexLexer, ptr %this1, i32 0, i32 17
  %2 = load ptr, ptr %yy_buffer_stack3, align 8
  %tobool4 = icmp ne ptr %2, null
  br i1 %tobool4, label %if.end, label %if.then5

if.then5:                                         ; preds = %if.then
  %vtable = load ptr, ptr %this1, align 8
  %vfn = getelementptr inbounds ptr, ptr %vtable, i64 14
  %3 = load ptr, ptr %vfn, align 8
  call void %3(ptr noundef nonnull align 8 dereferenceable(732) %this1, ptr noundef @.str.8)
  br label %if.end

if.end:                                           ; preds = %if.then5, %if.then
  %yy_buffer_stack6 = getelementptr inbounds %class.veloxtpFlexLexer, ptr %this1, i32 0, i32 17
  %4 = load ptr, ptr %yy_buffer_stack6, align 8
  %5 = load i64, ptr %num_to_alloc, align 8
  %mul7 = mul i64 %5, 8
  call void @llvm.memset.p0.i64(ptr align 8 %4, i8 0, i64 %mul7, i1 false)
  %6 = load i64, ptr %num_to_alloc, align 8
  %yy_buffer_stack_max = getelementptr inbounds %class.veloxtpFlexLexer, ptr %this1, i32 0, i32 16
  store i64 %6, ptr %yy_buffer_stack_max, align 8
  %yy_buffer_stack_top = getelementptr inbounds %class.veloxtpFlexLexer, ptr %this1, i32 0, i32 15
  store i64 0, ptr %yy_buffer_stack_top, align 8
  br label %if.end27

if.end8:                                          ; preds = %entry
  %yy_buffer_stack_top9 = getelementptr inbounds %class.veloxtpFlexLexer, ptr %this1, i32 0, i32 15
  %7 = load i64, ptr %yy_buffer_stack_top9, align 8
  %yy_buffer_stack_max10 = getelementptr inbounds %class.veloxtpFlexLexer, ptr %this1, i32 0, i32 16
  %8 = load i64, ptr %yy_buffer_stack_max10, align 8
  %sub = sub i64 %8, 1
  %cmp = icmp uge i64 %7, %sub
  br i1 %cmp, label %if.then11, label %if.end27

if.then11:                                        ; preds = %if.end8
  store i64 8, ptr %grow_size, align 8
  %yy_buffer_stack_max12 = getelementptr inbounds %class.veloxtpFlexLexer, ptr %this1, i32 0, i32 16
  %9 = load i64, ptr %yy_buffer_stack_max12, align 8
  %10 = load i64, ptr %grow_size, align 8
  %add = add i64 %9, %10
  store i64 %add, ptr %num_to_alloc, align 8
  %yy_buffer_stack13 = getelementptr inbounds %class.veloxtpFlexLexer, ptr %this1, i32 0, i32 17
  %11 = load ptr, ptr %yy_buffer_stack13, align 8
  %12 = load i64, ptr %num_to_alloc, align 8
  %mul14 = mul i64 %12, 8
  %call15 = call noundef ptr @_Z14veloxtpreallocPvm(ptr noundef %11, i64 noundef %mul14)
  %yy_buffer_stack16 = getelementptr inbounds %class.veloxtpFlexLexer, ptr %this1, i32 0, i32 17
  store ptr %call15, ptr %yy_buffer_stack16, align 8
  %yy_buffer_stack17 = getelementptr inbounds %class.veloxtpFlexLexer, ptr %this1, i32 0, i32 17
  %13 = load ptr, ptr %yy_buffer_stack17, align 8
  %tobool18 = icmp ne ptr %13, null
  br i1 %tobool18, label %if.end22, label %if.then19

if.then19:                                        ; preds = %if.then11
  %vtable20 = load ptr, ptr %this1, align 8
  %vfn21 = getelementptr inbounds ptr, ptr %vtable20, i64 14
  %14 = load ptr, ptr %vfn21, align 8
  call void %14(ptr noundef nonnull align 8 dereferenceable(732) %this1, ptr noundef @.str.8)
  br label %if.end22

if.end22:                                         ; preds = %if.then19, %if.then11
  %yy_buffer_stack23 = getelementptr inbounds %class.veloxtpFlexLexer, ptr %this1, i32 0, i32 17
  %15 = load ptr, ptr %yy_buffer_stack23, align 8
  %yy_buffer_stack_max24 = getelementptr inbounds %class.veloxtpFlexLexer, ptr %this1, i32 0, i32 16
  %16 = load i64, ptr %yy_buffer_stack_max24, align 8
  %add.ptr = getelementptr inbounds ptr, ptr %15, i64 %16
  %17 = load i64, ptr %grow_size, align 8
  %mul25 = mul i64 %17, 8
  call void @llvm.memset.p0.i64(ptr align 8 %add.ptr, i8 0, i64 %mul25, i1 false)
  %18 = load i64, ptr %num_to_alloc, align 8
  %yy_buffer_stack_max26 = getelementptr inbounds %class.veloxtpFlexLexer, ptr %this1, i32 0, i32 16
  store i64 %18, ptr %yy_buffer_stack_max26, align 8
  br label %if.end27

if.end27:                                         ; preds = %if.end22, %if.end8, %if.end
  ret void
}