; Function Attrs: mustprogress uwtable
define void @_ZN16veloxtpFlexLexer21yyensure_buffer_stackEv(ptr noundef nonnull align 8 dereferenceable(732) %this) local_unnamed_addr #4 align 2 {
entry:
  %yy_buffer_stack = getelementptr inbounds i8, ptr %this, i64 648
  %0 = load ptr, ptr %yy_buffer_stack, align 8
  %tobool.not = icmp eq ptr %0, null
  br i1 %tobool.not, label %if.then, label %if.end8

if.then:                                          ; preds = %entry
  %call.i = tail call noalias noundef dereferenceable_or_null(8) ptr @malloc(i64 noundef 8) #32
  store ptr %call.i, ptr %yy_buffer_stack, align 8
  %tobool4.not = icmp eq ptr %call.i, null
  br i1 %tobool4.not, label %if.then5, label %if.end

if.then5:                                         ; preds = %if.then
  %vtable = load ptr, ptr %this, align 8
  %vfn = getelementptr inbounds i8, ptr %vtable, i64 112
  %1 = load ptr, ptr %vfn, align 8
  tail call void %1(ptr noundef nonnull align 8 dereferenceable(732) %this, ptr noundef nonnull @.str.8)
  %.pre7 = load ptr, ptr %yy_buffer_stack, align 8
  br label %if.end

if.end:                                           ; preds = %if.then5, %if.then
  %2 = phi ptr [ %.pre7, %if.then5 ], [ %call.i, %if.then ]
  store i64 0, ptr %2, align 8
  %yy_buffer_stack_max = getelementptr inbounds i8, ptr %this, i64 640
  store i64 1, ptr %yy_buffer_stack_max, align 8
  %yy_buffer_stack_top = getelementptr inbounds i8, ptr %this, i64 632
  store i64 0, ptr %yy_buffer_stack_top, align 8
  br label %if.end27

if.end8:                                          ; preds = %entry
  %yy_buffer_stack_top9 = getelementptr inbounds i8, ptr %this, i64 632
  %3 = load i64, ptr %yy_buffer_stack_top9, align 8
  %yy_buffer_stack_max10 = getelementptr inbounds i8, ptr %this, i64 640
  %4 = load i64, ptr %yy_buffer_stack_max10, align 8
  %sub = add i64 %4, -1
  %cmp.not = icmp ult i64 %3, %sub
  br i1 %cmp.not, label %if.end27, label %if.then11

if.then11:                                        ; preds = %if.end8
  %add = add i64 %4, 8
  %mul14 = shl i64 %add, 3
  %call.i6 = tail call noalias noundef ptr @realloc(ptr noundef nonnull %0, i64 noundef %mul14) #33
  store ptr %call.i6, ptr %yy_buffer_stack, align 8
  %tobool18.not = icmp eq ptr %call.i6, null
  br i1 %tobool18.not, label %if.then19, label %if.end22

if.then19:                                        ; preds = %if.then11
  %vtable20 = load ptr, ptr %this, align 8
  %vfn21 = getelementptr inbounds i8, ptr %vtable20, i64 112
  %5 = load ptr, ptr %vfn21, align 8
  tail call void %5(ptr noundef nonnull align 8 dereferenceable(732) %this, ptr noundef nonnull @.str.8)
  %.pre = load ptr, ptr %yy_buffer_stack, align 8
  br label %if.end22

if.end22:                                         ; preds = %if.then19, %if.then11
  %6 = phi ptr [ %.pre, %if.then19 ], [ %call.i6, %if.then11 ]
  %7 = load i64, ptr %yy_buffer_stack_max10, align 8
  %add.ptr = getelementptr inbounds ptr, ptr %6, i64 %7
  tail call void @llvm.memset.p0.i64(ptr noundef nonnull align 8 dereferenceable(64) %add.ptr, i8 0, i64 64, i1 false)
  store i64 %add, ptr %yy_buffer_stack_max10, align 8
  br label %if.end27

if.end27:                                         ; preds = %if.end22, %if.end8, %if.end
  ret void
}